Certificate:
    Data:
        Version: 1 (0x0)
        Serial Number: 17 (0x11)
    Signature Algorithm: sha1WithRSAEncryption
        Issuer: C=86, ST=zhejiang, L=hz, O=5th, OU=go, CN=localhost/emailAddress=longmsdu@163.com
        Validity
            Not Before: Sep  8 08:19:18 2018 GMT
            Not After : Sep  8 08:19:18 2019 GMT
        Subject: C=86, ST=zhejiang, O=5th, CN=www.long.com/emailAddress=longmsdu@163.com
        Subject Public Key Info:
            Public Key Algorithm: rsaEncryption
                Public-Key: (2048 bit)
                Modulus:
                    00:c1:4a:13:28:45:4a:07:80:14:bb:8b:1e:4e:5c:
                    98:4a:85:44:ab:cc:1e:b1:06:ad:1d:a2:4a:a4:57:
                    56:47:78:74:c7:dc:a1:49:10:29:4b:09:01:bc:f2:
                    ce:ec:4e:63:25:be:fe:ab:9b:57:a0:44:90:f3:07:
                    5f:27:a6:78:76:56:12:d9:d8:3f:d7:13:1f:21:c9:
                    87:97:c3:ac:a8:01:9a:7a:45:c4:02:27:7a:2e:7d:
                    d1:8b:bf:2b:a2:ef:11:4d:13:92:b8:d9:f1:3f:c2:
                    2a:78:48:59:be:d0:ae:4f:89:23:1b:81:85:56:b5:
                    83:a3:df:96:ee:d0:92:7b:48:b5:48:c4:e3:9a:30:
                    7b:98:b8:f9:e2:c6:d9:f1:bd:d3:5c:59:ef:0e:17:
                    c6:dd:26:ed:f5:a0:f3:8d:f8:16:cd:b3:39:a6:aa:
                    7b:c5:3d:f8:db:5d:ac:91:b8:8f:65:9a:7f:04:64:
                    9b:d2:22:15:7f:08:27:fc:a3:32:da:23:4f:e9:cc:
                    b2:88:d9:36:26:69:f7:4c:c4:04:fe:fd:c9:2d:c4:
                    ad:36:46:56:99:d8:9b:ba:5b:d1:6d:e4:a2:b5:95:
                    b4:3a:03:2c:32:0d:7e:8b:da:1f:39:a2:a9:e1:af:
                    86:b1:87:c8:15:01:9b:1b:7b:04:8b:65:e5:0c:2a:
                    3b:2d
                Exponent: 65537 (0x10001)
    Signature Algorithm: sha1WithRSAEncryption
         cd:bd:2a:6b:8d:b0:fd:c8:09:b8:29:96:41:4d:37:31:55:f2:
         ec:85:6b:15:d5:99:b9:99:02:8b:8d:0f:da:0a:70:90:62:65:
         10:69:8c:40:a8:9b:9d:e1:9f:7a:ef:09:d0:d1:75:b5:50:93:
         38:b9:49:1d:d3:0d:5b:fb:c3:2c:0b:20:9f:43:51:64:b5:70:
         1f:fe:d6:b9:07:eb:77:e4:cd:f6:d9:35:eb:31:9d:fe:45:72:
         83:10:2a:df:fa:bf:cb:8e:b1:60:d2:0a:cf:51:4c:e6:00:d9:
         bc:31:f7:5f:78:ba:03:72:46:43:05:07:09:2f:20:71:1c:81:
         42:09:ac:0b:9f:60:77:b5:6c:00:21:c2:b5:e1:94:1c:ee:86:
         51:fb:8c:50:05:4b:82:b8:4e:39:28:fe:d8:70:7c:d3:14:ca:
         66:e9:a9:0c:00:a5:cd:84:ab:a1:c4:e5:8d:f8:03:cc:05:45:
         35:37:a0:da:41:9e:36:e1:81:e5:63:b0:a3:1d:56:1d:2e:ce:
         43:f9:a0:87:32:bd:4b:98:0d:3d:a8:ec:fa:dd:4e:01:e3:43:
         7e:33:80:26:0f:97:bb:e0:ec:18:64:07:dd:12:25:92:e0:00:
         09:f6:21:df:0d:6b:88:95:49:ff:99:44:b3:8c:23:a9:56:10:
         02:72:d1:de
-----BEGIN CERTIFICATE-----
MIIDVzCCAj8CAREwDQYJKoZIhvcNAQEFBQAwfTELMAkGA1UEBhMCODYxETAPBgNV
BAgMCHpoZWppYW5nMQswCQYDVQQHDAJoejEMMAoGA1UECgwDNXRoMQswCQYDVQQL
DAJnbzESMBAGA1UEAwwJbG9jYWxob3N0MR8wHQYJKoZIhvcNAQkBFhBsb25nbXNk
dUAxNjMuY29tMB4XDTE4MDkwODA4MTkxOFoXDTE5MDkwODA4MTkxOFowZjELMAkG
A1UEBhMCODYxETAPBgNVBAgMCHpoZWppYW5nMQwwCgYDVQQKDAM1dGgxFTATBgNV
BAMMDHd3dy5sb25nLmNvbTEfMB0GCSqGSIb3DQEJARYQbG9uZ21zZHVAMTYzLmNv
bTCCASIwDQYJKoZIhvcNAQEBBQADggEPADCCAQoCggEBAMFKEyhFSgeAFLuLHk5c
mEqFRKvMHrEGrR2iSqRXVkd4dMfcoUkQKUsJAbzyzuxOYyW+/qubV6BEkPMHXyem
eHZWEtnYP9cTHyHJh5fDrKgBmnpFxAInei590Yu/K6LvEU0TkrjZ8T/CKnhIWb7Q
rk+JIxuBhVa1g6Pflu7QkntItUjE45owe5i4+eLG2fG901xZ7w4Xxt0m7fWg8434
Fs2zOaaqe8U9+NtdrJG4j2WafwRkm9IiFX8IJ/yjMtojT+nMsojZNiZp90zEBP79
yS3ErTZGVpnYm7pb0W3korWVtDoDLDINfovaHzmiqeGvhrGHyBUBmxt7BItl5Qwq
Oy0CAwEAATANBgkqhkiG9w0BAQUFAAOCAQEAzb0qa42w/cgJuCmWQU03MVXy7IVr
FdWZuZkCi40P2gpwkGJlEGmMQKibneGfeu8J0NF1tVCTOLlJHdMNW/vDLAsgn0NR
ZLVwH/7WuQfrd+TN9tk16zGd/kVygxAq3/q/y46xYNIKz1FM5gDZvDH3X3i6A3JG
QwUHCS8gcRyBQgmsC59gd7VsACHCteGUHO6GUfuMUAVLgrhOOSj+2HB80xTKZump
DAClzYSrocTljfgDzAVFNTeg2kGeNuGB5WOwox1WHS7OQ/mghzK9S5gNPajs+t1O
AeNDfjOAJg+Xu+DsGGQH3RIlkuAACfYh3w1riJVJ/5lEs4wjqVYQAnLR3g==
-----END CERTIFICATE-----
